target datalayout = "e-m:e-p270:32:32-p271:32:32-p272:64:64-i64:64-i128:128-f80:128-n8:16:32:64-S128"
target triple = "x86_64-pc-linux-gnu"

%struct.Fraig_HashTableStruct_t_ = type { ptr, i32, i32 }
%struct.Fraig_ManStruct_t_ = type { ptr, ptr, ptr, ptr, ptr, ptr, ptr, ptr, ptr, i32, i32, i32, i32, i32, i32, i32, i32, i32, i32, i32, i32, i64, i32, i32, i32, i32, i32, ptr, ptr, ptr, ptr, ptr, i32, ptr, ptr, ptr, ptr, ptr, ptr, i32, ptr, ptr, ptr, ptr, i32, i32, i32, i32, i32, i32, i32, i32, i32, i32, i32, i32, i32, i32, i32, i32, i32, i32, i32, i64, i64, i64, i64, i64, i64, i64, i64, i64, i64, i64, i64 }
%struct.Fraig_NodeStruct_t_ = type { i32, i32, i32, i32, i32, i32, i32, ptr, ptr, ptr, ptr, ptr, ptr, ptr, ptr, i32, i32, ptr, ptr, ptr, ptr, ptr, ptr, ptr }

@.str = private unnamed_addr constant [60 x i8] c"Structural table. Table size = %d. Number of entries = %d.\0A\00", align 1
@.str.1 = private unnamed_addr constant [4 x i8] c"%d \00", align 1
@.str.2 = private unnamed_addr constant [6 x i8] c"{%d} \00", align 1
@.str.3 = private unnamed_addr constant [2 x i8] c"\0A\00", align 1

; Function Attrs: nounwind uwtable
define void @Fraig_TablePrintStatsS(ptr noundef %0) #0 {
  %2 = alloca ptr, align 8
  %3 = alloca ptr, align 8
  %4 = alloca ptr, align 8
  %5 = alloca i32, align 4
  %6 = alloca i32, align 4
  store ptr %0, ptr %2, align 8, !tbaa !17
  call void @llvm.lifetime.start.p0(i64 8, ptr %3) #7
  %7 = load ptr, ptr %2, align 8, !tbaa !17
  %8 = getelementptr inbounds nuw %struct.Fraig_ManStruct_t_, ptr %7, i32 0, i32 6
  %9 = load ptr, ptr %8, align 8, !tbaa !22
  store ptr %9, ptr %3, align 8, !tbaa !7
  call void @llvm.lifetime.start.p0(i64 8, ptr %4) #7
  call void @llvm.lifetime.start.p0(i64 4, ptr %5) #7
  call void @llvm.lifetime.start.p0(i64 4, ptr %6) #7
  %10 = load ptr, ptr %3, align 8, !tbaa !7
  %11 = getelementptr inbounds nuw %struct.Fraig_HashTableStruct_t_, ptr %10, i32 0, i32 1
  %12 = load i32, ptr %11, align 8, !tbaa !10
  %13 = load ptr, ptr %3, align 8, !tbaa !7
  %14 = getelementptr inbounds nuw %struct.Fraig_HashTableStruct_t_, ptr %13, i32 0, i32 2
  %15 = load i32, ptr %14, align 4, !tbaa !39
  %16 = call i32 (ptr, ...) @printf(ptr noundef @.str, i32 noundef %12, i32 noundef %15)
  store i32 0, ptr %5, align 4, !tbaa !3
  br label %17

17:                                               ; preds = %54, %1
  %18 = load i32, ptr %5, align 4, !tbaa !3
  %19 = load ptr, ptr %3, align 8, !tbaa !7
  %20 = getelementptr inbounds nuw %struct.Fraig_HashTableStruct_t_, ptr %19, i32 0, i32 1
  %21 = load i32, ptr %20, align 8, !tbaa !10
  %22 = icmp slt i32 %18, %21
  br i1 %22, label %23, label %57

23:                                               ; preds = %17
  store i32 0, ptr %6, align 4, !tbaa !3
  %24 = load ptr, ptr %3, align 8, !tbaa !7
  %25 = getelementptr inbounds nuw %struct.Fraig_HashTableStruct_t_, ptr %24, i32 0, i32 0
  %26 = load ptr, ptr %25, align 8, !tbaa !13
  %27 = load i32, ptr %5, align 4, !tbaa !3
  %28 = sext i32 %27 to i64
  %29 = getelementptr inbounds ptr, ptr %26, i64 %28
  %30 = load ptr, ptr %29, align 8, !tbaa !19
  store ptr %30, ptr %4, align 8, !tbaa !19
  br label %31

31:                                               ; preds = %37, %23
  %32 = load ptr, ptr %4, align 8, !tbaa !19
  %33 = icmp ne ptr %32, null
  br i1 %33, label %34, label %41

34:                                               ; preds = %31
  %35 = load i32, ptr %6, align 4, !tbaa !3
  %36 = add nsw i32 %35, 1
  store i32 %36, ptr %6, align 4, !tbaa !3
  br label %37

37:                                               ; preds = %34
  %38 = load ptr, ptr %4, align 8, !tbaa !19
  %39 = getelementptr inbounds nuw %struct.Fraig_NodeStruct_t_, ptr %38, i32 0, i32 10
  %40 = load ptr, ptr %39, align 8, !tbaa !37
  store ptr %40, ptr %4, align 8, !tbaa !19
  br label %31, !llvm.loop !71

41:                                               ; preds = %31
  %42 = load i32, ptr %6, align 4, !tbaa !3
  %43 = icmp sgt i32 %42, 1
  br i1 %43, label %44, label %53

44:                                               ; preds = %41
  %45 = load i32, ptr %6, align 4, !tbaa !3
  %46 = call i32 (ptr, ...) @printf(ptr noundef @.str.1, i32 noundef %45)
  %47 = load i32, ptr %6, align 4, !tbaa !3
  %48 = icmp sgt i32 %47, 50
  br i1 %48, label %49, label %52

49:                                               ; preds = %44
  %50 = load i32, ptr %5, align 4, !tbaa !3
  %51 = call i32 (ptr, ...) @printf(ptr noundef @.str.2, i32 noundef %50)
  br label %52

52:                                               ; preds = %49, %44
  br label %53

53:                                               ; preds = %52, %41
  br label %54

54:                                               ; preds = %53
  %55 = load i32, ptr %5, align 4, !tbaa !3
  %56 = add nsw i32 %55, 1
  store i32 %56, ptr %5, align 4, !tbaa !3
  br label %17, !llvm.loop !72

57:                                               ; preds = %17
  %58 = call i32 (ptr, ...) @printf(ptr noundef @.str.3)
  call void @llvm.lifetime.end.p0(i64 4, ptr %6) #7
  call void @llvm.lifetime.end.p0(i64 4, ptr %5) #7
  call void @llvm.lifetime.end.p0(i64 8, ptr %4) #7
  call void @llvm.lifetime.end.p0(i64 8, ptr %3) #7
  ret void
}