; Function Attrs: nofree nounwind uwtable
define void @Fraig_TablePrintStatsS(ptr noundef readonly captures(none) %0) local_unnamed_addr #9 {
  %2 = getelementptr inbounds nuw i8, ptr %0, i64 48
  %3 = load ptr, ptr %2, align 8, !tbaa !14
  %4 = getelementptr inbounds nuw i8, ptr %3, i64 8
  %5 = load i32, ptr %4, align 8, !tbaa !6
  %6 = getelementptr inbounds nuw i8, ptr %3, i64 12
  %7 = load i32, ptr %6, align 4, !tbaa !33
  %8 = tail call i32 (ptr, ...) @printf(ptr noundef nonnull dereferenceable(1) @.str, i32 noundef %5, i32 noundef %7)
  %9 = load i32, ptr %4, align 8, !tbaa !6
  %10 = icmp sgt i32 %9, 0
  br i1 %10, label %.lr.ph22, label %._crit_edge23

.lr.ph22:                                         ; preds = %1, %._crit_edge.thread
  %indvars.iv = phi i64 [ %indvars.iv.next, %._crit_edge.thread ], [ 0, %1 ]
  %11 = load ptr, ptr %3, align 8, !tbaa !13
  %12 = getelementptr inbounds nuw ptr, ptr %11, i64 %indvars.iv
  %.01516 = load ptr, ptr %12, align 8, !tbaa !29
  %.not17 = icmp eq ptr %.01516, null
  br i1 %.not17, label %._crit_edge.thread, label %.lr.ph

.lr.ph:                                           ; preds = %.lr.ph22, %.lr.ph
  %.01519 = phi ptr [ %.015, %.lr.ph ], [ %.01516, %.lr.ph22 ]
  %.018 = phi i32 [ %13, %.lr.ph ], [ 0, %.lr.ph22 ]
  %13 = add nuw nsw i32 %.018, 1
  %14 = getelementptr inbounds nuw i8, ptr %.01519, i64 56
  %.015 = load ptr, ptr %14, align 8, !tbaa !29
  %.not = icmp eq ptr %.015, null
  br i1 %.not, label %._crit_edge, label %.lr.ph, !llvm.loop !66

._crit_edge:                                      ; preds = %.lr.ph
  %.not26 = icmp eq i32 %.018, 0
  br i1 %.not26, label %._crit_edge.thread, label %15

15:                                               ; preds = %._crit_edge
  %16 = tail call i32 (ptr, ...) @printf(ptr noundef nonnull dereferenceable(1) @.str.1, i32 noundef %13)
  %17 = icmp samesign ugt i32 %.018, 49
  br i1 %17, label %18, label %._crit_edge.thread

18:                                               ; preds = %15
  %19 = trunc nuw nsw i64 %indvars.iv to i32
  %20 = tail call i32 (ptr, ...) @printf(ptr noundef nonnull dereferenceable(1) @.str.2, i32 noundef %19)
  br label %._crit_edge.thread

._crit_edge.thread:                               ; preds = %.lr.ph22, %._crit_edge, %18, %15
  %indvars.iv.next = add nuw nsw i64 %indvars.iv, 1
  %21 = load i32, ptr %4, align 8, !tbaa !6
  %22 = sext i32 %21 to i64
  %23 = icmp slt i64 %indvars.iv.next, %22
  br i1 %23, label %.lr.ph22, label %._crit_edge23, !llvm.loop !67

._crit_edge23:                                    ; preds = %._crit_edge.thread, %1
  %putchar = tail call i32 @putchar(i32 10)
  ret void
}